; Function Attrs: nounwind uwtable
define noalias ptr @l_Std_Sat_AIG_RefVec_ite___rarg(ptr noundef %0, ptr noundef %1, ptr noundef %2, ptr noundef %3, ptr noundef %4) local_unnamed_addr #0 {
  %6 = getelementptr inbounds nuw i8, ptr %4, i64 8
  %7 = load ptr, ptr %6, align 8, !tbaa !4
  %8 = ptrtoint ptr %7 to i64
  %9 = and i64 %8, 1
  %.not = icmp eq i64 %9, 0
  br i1 %.not, label %10, label %lean_inc.exit21

10:                                               ; preds = %5
  %.val.i = load i32, ptr %7, align 4, !tbaa !8
  %11 = icmp sgt i32 %.val.i, 0
  br i1 %11, label %12, label %14, !prof !11

12:                                               ; preds = %10
  %13 = add nuw i32 %.val.i, 1
  store i32 %13, ptr %7, align 4, !tbaa !8
  br label %lean_inc.exit21

14:                                               ; preds = %10
  %.not.i28 = icmp eq i32 %.val.i, 0
  br i1 %.not.i28, label %lean_inc.exit21, label %15

15:                                               ; preds = %14
  tail call void @lean_inc_ref_cold(ptr noundef nonnull %7) #3
  br label %lean_inc.exit21

lean_inc.exit21:                                  ; preds = %15, %14, %12, %5
  %16 = getelementptr inbounds nuw i8, ptr %4, i64 16
  %17 = load ptr, ptr %16, align 8, !tbaa !4
  %18 = ptrtoint ptr %17 to i64
  %19 = and i64 %18, 1
  %.not36 = icmp eq i64 %19, 0
  br i1 %.not36, label %20, label %lean_inc.exit20

20:                                               ; preds = %lean_inc.exit21
  %.val.i29 = load i32, ptr %17, align 4, !tbaa !8
  %21 = icmp sgt i32 %.val.i29, 0
  br i1 %21, label %22, label %24, !prof !11

22:                                               ; preds = %20
  %23 = add nuw i32 %.val.i29, 1
  store i32 %23, ptr %17, align 4, !tbaa !8
  br label %lean_inc.exit20

24:                                               ; preds = %20
  %.not.i30 = icmp eq i32 %.val.i29, 0
  br i1 %.not.i30, label %lean_inc.exit20, label %25

25:                                               ; preds = %24
  tail call void @lean_inc_ref_cold(ptr noundef nonnull %17) #3
  br label %lean_inc.exit20

lean_inc.exit20:                                  ; preds = %25, %24, %22, %lean_inc.exit21
  %26 = getelementptr inbounds nuw i8, ptr %4, i64 24
  %27 = load ptr, ptr %26, align 8, !tbaa !4
  %28 = ptrtoint ptr %27 to i64
  %29 = and i64 %28, 1
  %.not37 = icmp eq i64 %29, 0
  br i1 %.not37, label %30, label %lean_inc.exit

30:                                               ; preds = %lean_inc.exit20
  %.val.i32 = load i32, ptr %27, align 4, !tbaa !8
  %31 = icmp sgt i32 %.val.i32, 0
  br i1 %31, label %32, label %34, !prof !11

32:                                               ; preds = %30
  %33 = add nuw i32 %.val.i32, 1
  store i32 %33, ptr %27, align 4, !tbaa !8
  br label %lean_inc.exit

34:                                               ; preds = %30
  %.not.i33 = icmp eq i32 %.val.i32, 0
  br i1 %.not.i33, label %lean_inc.exit, label %35

35:                                               ; preds = %34
  tail call void @lean_inc_ref_cold(ptr noundef nonnull %27) #3
  br label %lean_inc.exit

lean_inc.exit:                                    ; preds = %35, %34, %32, %lean_inc.exit20
  %36 = ptrtoint ptr %4 to i64
  %37 = and i64 %36, 1
  %.not38 = icmp eq i64 %37, 0
  br i1 %.not38, label %38, label %lean_dec.exit23

38:                                               ; preds = %lean_inc.exit
  %39 = load i32, ptr %4, align 4, !tbaa !8
  %40 = icmp sgt i32 %39, 1
  br i1 %40, label %41, label %43, !prof !11

41:                                               ; preds = %38
  %42 = add nsw i32 %39, -1
  store i32 %42, ptr %4, align 4, !tbaa !8
  br label %lean_dec.exit23

43:                                               ; preds = %38
  %.not.i = icmp eq i32 %39, 0
  br i1 %.not.i, label %lean_dec.exit23, label %44

44:                                               ; preds = %43
  tail call void @lean_dec_ref_cold(ptr noundef nonnull %4) #3
  br label %lean_dec.exit23

lean_dec.exit23:                                  ; preds = %44, %43, %41, %lean_inc.exit
  %45 = ptrtoint ptr %2 to i64
  %46 = and i64 %45, 1
  %.not.i35 = icmp eq i64 %46, 0
  br i1 %.not.i35, label %47, label %lean_mk_empty_array_with_capacity.exit

47:                                               ; preds = %lean_dec.exit23
  tail call void @lean_internal_panic_out_of_memory() #4
  unreachable

lean_mk_empty_array_with_capacity.exit:           ; preds = %lean_dec.exit23
  %48 = lshr i64 %45, 1
  %49 = shl i64 %48, 3
  %50 = add i64 %49, 24
  %51 = tail call ptr @lean_alloc_object(i64 noundef %50) #3
  store i32 1, ptr %51, align 4, !tbaa !8
  %52 = getelementptr inbounds nuw i8, ptr %51, i64 4
  %53 = load i32, ptr %52, align 4
  %54 = and i32 %53, 65535
  %55 = or disjoint i32 %54, -167772160
  store i32 %55, ptr %52, align 4
  %56 = getelementptr inbounds nuw i8, ptr %51, i64 8
  store i64 0, ptr %56, align 8, !tbaa !13
  %57 = getelementptr inbounds nuw i8, ptr %51, i64 16
  store i64 %48, ptr %57, align 8, !tbaa !13
  %58 = tail call ptr @l_Std_Sat_AIG_RefVec_ite_go___rarg(ptr noundef %0, ptr noundef %1, ptr noundef %2, ptr noundef %3, ptr noundef nonnull inttoptr (i64 1 to ptr), ptr nonnull poison, ptr noundef %7, ptr noundef %17, ptr noundef %27, ptr noundef nonnull %51)
  br i1 %.not37, label %59, label %lean_dec.exit22

59:                                               ; preds = %lean_mk_empty_array_with_capacity.exit
  %60 = load i32, ptr %27, align 4, !tbaa !8
  %61 = icmp sgt i32 %60, 1
  br i1 %61, label %62, label %64, !prof !11

62:                                               ; preds = %59
  %63 = add nsw i32 %60, -1
  store i32 %63, ptr %27, align 4, !tbaa !8
  br label %lean_dec.exit22

64:                                               ; preds = %59
  %.not.i24 = icmp eq i32 %60, 0
  br i1 %.not.i24, label %lean_dec.exit22, label %65

65:                                               ; preds = %64
  tail call void @lean_dec_ref_cold(ptr noundef nonnull %27) #3
  br label %lean_dec.exit22

lean_dec.exit22:                                  ; preds = %65, %64, %62, %lean_mk_empty_array_with_capacity.exit
  br i1 %.not36, label %66, label %lean_dec.exit

66:                                               ; preds = %lean_dec.exit22
  %67 = load i32, ptr %17, align 4, !tbaa !8
  %68 = icmp sgt i32 %67, 1
  br i1 %68, label %69, label %71, !prof !11

69:                                               ; preds = %66
  %70 = add nsw i32 %67, -1
  store i32 %70, ptr %17, align 4, !tbaa !8
  br label %lean_dec.exit

71:                                               ; preds = %66
  %.not.i26 = icmp eq i32 %67, 0
  br i1 %.not.i26, label %lean_dec.exit, label %72

72:                                               ; preds = %71
  tail call void @lean_dec_ref_cold(ptr noundef nonnull %17) #3
  br label %lean_dec.exit

lean_dec.exit:                                    ; preds = %72, %71, %69, %lean_dec.exit22
  ret ptr %58
}